target datalayout = "e-m:e-p270:32:32-p271:32:32-p272:64:64-i64:64-i128:128-f80:128-n8:16:32:64-S128"
target triple = "x86_64-pc-linux-gnu"

%struct.Msat_IntVec_t_ = type { ptr, i32, i32 }

; Function Attrs: nounwind uwtable
define void @Msat_IntVecSort(ptr noundef %0, i32 noundef %1) #0 {
  %3 = alloca ptr, align 8
  %4 = alloca i32, align 4
  store ptr %0, ptr %3, align 8, !tbaa !7
  store i32 %1, ptr %4, align 4, !tbaa !3
  %5 = load i32, ptr %4, align 4, !tbaa !3
  %6 = icmp ne i32 %5, 0
  br i1 %6, label %7, label %15

7:                                                ; preds = %2
  %8 = load ptr, ptr %3, align 8, !tbaa !7
  %9 = getelementptr inbounds nuw %struct.Msat_IntVec_t_, ptr %8, i32 0, i32 0
  %10 = load ptr, ptr %9, align 8, !tbaa !14
  %11 = load ptr, ptr %3, align 8, !tbaa !7
  %12 = getelementptr inbounds nuw %struct.Msat_IntVec_t_, ptr %11, i32 0, i32 1
  %13 = load i32, ptr %12, align 8, !tbaa !10
  %14 = sext i32 %13 to i64
  call void @qsort(ptr noundef %10, i64 noundef %14, i64 noundef 4, ptr noundef @Msat_IntVecSortCompare2)
  br label %23

15:                                               ; preds = %2
  %16 = load ptr, ptr %3, align 8, !tbaa !7
  %17 = getelementptr inbounds nuw %struct.Msat_IntVec_t_, ptr %16, i32 0, i32 0
  %18 = load ptr, ptr %17, align 8, !tbaa !14
  %19 = load ptr, ptr %3, align 8, !tbaa !7
  %20 = getelementptr inbounds nuw %struct.Msat_IntVec_t_, ptr %19, i32 0, i32 1
  %21 = load i32, ptr %20, align 8, !tbaa !10
  %22 = sext i32 %21 to i64
  call void @qsort(ptr noundef %18, i64 noundef %22, i64 noundef 4, ptr noundef @Msat_IntVecSortCompare1)
  br label %23

23:                                               ; preds = %15, %7
  ret void
}