; Function Attrs: nofree nounwind uwtable
define void @Msat_IntVecSort(ptr noundef readonly captures(none) %0, i32 noundef %1) local_unnamed_addr #15 {
  %.not = icmp eq i32 %1, 0
  %3 = load ptr, ptr %0, align 8, !tbaa !11
  %4 = getelementptr inbounds nuw i8, ptr %0, i64 8
  %5 = load i32, ptr %4, align 8, !tbaa !3
  %6 = sext i32 %5 to i64
  %Msat_IntVecSortCompare1.Msat_IntVecSortCompare2 = select i1 %.not, ptr @Msat_IntVecSortCompare1, ptr @Msat_IntVecSortCompare2
  tail call void @qsort(ptr noundef %3, i64 noundef %6, i64 noundef 4, ptr noundef nonnull %Msat_IntVecSortCompare1.Msat_IntVecSortCompare2) #20
  ret void
}